target datalayout = "e-m:e-p270:32:32-p271:32:32-p272:64:64-i64:64-i128:128-f80:128-n8:16:32:64-S128"
target triple = "x86_64-pc-linux-gnu"

%"class.nanogui::Widget" = type <{ %"class.nanogui::Object.base", [4 x i8], ptr, %"class.nanogui::ref", %"class.nanogui::ref.0", %"struct.nanogui::Array", %"struct.nanogui::Array", %"struct.nanogui::Array", %"class.std::vector", i8, i8, i8, i8, [4 x i8], %"class.std::__cxx11::basic_string", i32, float, i32, [4 x i8] }>
%"class.nanogui::Object.base" = type <{ ptr, %"struct.std::atomic" }>
%"struct.std::atomic" = type { %"struct.std::__atomic_base" }
%"struct.std::__atomic_base" = type { i32 }
%"class.nanogui::ref" = type { ptr }
%"class.nanogui::ref.0" = type { ptr }
%"struct.nanogui::Array" = type { [2 x i32] }
%"class.std::vector" = type { %"struct.std::_Vector_base" }
%"struct.std::_Vector_base" = type { %"struct.std::_Vector_base<nanogui::Widget *, std::allocator<nanogui::Widget *>>::_Vector_impl" }
%"struct.std::_Vector_base<nanogui::Widget *, std::allocator<nanogui::Widget *>>::_Vector_impl" = type { %"struct.std::_Vector_base<nanogui::Widget *, std::allocator<nanogui::Widget *>>::_Vector_impl_data" }
%"struct.std::_Vector_base<nanogui::Widget *, std::allocator<nanogui::Widget *>>::_Vector_impl_data" = type { ptr, ptr, ptr }
%"class.std::__cxx11::basic_string" = type { %"struct.std::__cxx11::basic_string<char>::_Alloc_hider", i64, %union.anon }
%"struct.std::__cxx11::basic_string<char>::_Alloc_hider" = type { ptr }
%union.anon = type { i64, [8 x i8] }

; Function Attrs: mustprogress nounwind uwtable
define linkonce_odr hidden noundef i64 @_ZNKSt6vectorIPN7nanogui6WidgetESaIS2_EE4sizeEv(ptr noundef nonnull align 8 dereferenceable(24) %0) #1 comdat align 2 {
  %2 = alloca ptr, align 8
  store ptr %0, ptr %2, align 8
  %3 = load ptr, ptr %2, align 8
  %4 = getelementptr inbounds %"struct.std::_Vector_base", ptr %3, i32 0, i32 0
  %5 = getelementptr inbounds %"struct.std::_Vector_base<nanogui::Widget *, std::allocator<nanogui::Widget *>>::_Vector_impl_data", ptr %4, i32 0, i32 1
  %6 = load ptr, ptr %5, align 8
  %7 = getelementptr inbounds %"struct.std::_Vector_base", ptr %3, i32 0, i32 0
  %8 = getelementptr inbounds %"struct.std::_Vector_base<nanogui::Widget *, std::allocator<nanogui::Widget *>>::_Vector_impl_data", ptr %7, i32 0, i32 0
  %9 = load ptr, ptr %8, align 8
  %10 = ptrtoint ptr %6 to i64
  %11 = ptrtoint ptr %9 to i64
  %12 = sub i64 %10, %11
  %13 = sdiv exact i64 %12, 8
  ret i64 %13
}

; Function Attrs: mustprogress nounwind uwtable
define linkonce_odr hidden noundef i32 @_ZNK7nanogui6Widget11child_countEv(ptr noundef nonnull align 8 dereferenceable(140) %0) #1 comdat align 2 {
  %2 = alloca ptr, align 8
  store ptr %0, ptr %2, align 8
  %3 = load ptr, ptr %2, align 8
  %4 = getelementptr inbounds %"class.nanogui::Widget", ptr %3, i32 0, i32 8
  %5 = call noundef i64 @_ZNKSt6vectorIPN7nanogui6WidgetESaIS2_EE4sizeEv(ptr noundef nonnull align 8 dereferenceable(24) %4) #11
  %6 = trunc i64 %5 to i32
  ret i32 %6
}

; Function Attrs: mustprogress uwtable
define hidden void @_ZN7nanogui6Widget9add_childEPS0_(ptr noundef nonnull align 8 dereferenceable(140) %0, ptr noundef %1) #0 align 2 {
  %3 = alloca ptr, align 8
  %4 = alloca ptr, align 8
  store ptr %0, ptr %3, align 8
  store ptr %1, ptr %4, align 8
  %5 = load ptr, ptr %3, align 8
  %6 = call noundef i32 @_ZNK7nanogui6Widget11child_countEv(ptr noundef nonnull align 8 dereferenceable(140) %5)
  %7 = load ptr, ptr %4, align 8
  %8 = load ptr, ptr %5, align 8
  %9 = getelementptr inbounds ptr, ptr %8, i64 3
  %10 = load ptr, ptr %9, align 8
  call void %10(ptr noundef nonnull align 8 dereferenceable(140) %5, i32 noundef %6, ptr noundef %7)
  ret void
}